; Function Attrs: nounwind uwtable
define dso_local range(i32 0, 82) i32 @Curl_senddata(ptr noundef %0, ptr noundef %1, i64 noundef %2, ptr noundef initializes((0, 8)) %3) local_unnamed_addr #5 {
  %5 = alloca %struct.sigaction, align 8
  %6 = alloca ptr, align 8
  %7 = alloca %struct.sigpipe_ignore, align 8
  call void @llvm.lifetime.start.p0(i64 8, ptr nonnull %6) #12
  store ptr null, ptr %6, align 8, !tbaa !131
  call void @llvm.lifetime.start.p0(i64 160, ptr nonnull %7) #12
  store i64 0, ptr %3, align 8, !tbaa !101
  %.not.i = icmp eq ptr %0, null
  br i1 %.not.i, label %easy_connection.exit.thread, label %8

8:                                                ; preds = %4
  %9 = getelementptr inbounds nuw i8, ptr %0, i64 2561
  %10 = load i8, ptr %9, align 1, !tbaa !130
  %.not8.i = icmp eq i8 %10, 0
  br i1 %.not8.i, label %.sink.split.i, label %11

11:                                               ; preds = %8
  %12 = call i32 @Curl_getconnectinfo(ptr noundef nonnull %0, ptr noundef nonnull %6) #12
  %13 = icmp eq i32 %12, -1
  br i1 %13, label %.sink.split.i, label %easy_connection.exit

.sink.split.i:                                    ; preds = %11, %8
  %.str.2.sink.i = phi ptr [ @.str.1, %8 ], [ @.str.2, %11 ]
  call void (ptr, ptr, ...) @Curl_failf(ptr noundef nonnull %0, ptr noundef nonnull %.str.2.sink.i) #12
  br label %easy_connection.exit.thread

easy_connection.exit:                             ; preds = %11
  %14 = getelementptr inbounds nuw i8, ptr %0, i64 24
  %15 = load ptr, ptr %14, align 8, !tbaa !125
  %.not16 = icmp eq ptr %15, null
  br i1 %.not16, label %16, label %18

16:                                               ; preds = %easy_connection.exit
  %17 = load ptr, ptr %6, align 8, !tbaa !131
  call void @Curl_attach_connection(ptr noundef nonnull %0, ptr noundef %17) #12
  br label %18

18:                                               ; preds = %16, %easy_connection.exit
  %19 = getelementptr inbounds nuw i8, ptr %0, i64 2562
  %20 = load i64, ptr %19, align 2
  %21 = getelementptr inbounds nuw i8, ptr %7, i64 152
  %22 = lshr i64 %20, 30
  %23 = trunc i64 %22 to i8
  %24 = and i8 %23, 1
  store i8 %24, ptr %21, align 8, !tbaa !84
  %25 = and i64 %20, 1073741824
  %.not.i19 = icmp eq i64 %25, 0
  br i1 %.not.i19, label %26, label %sigpipe_ignore.exit

26:                                               ; preds = %18
  call void @llvm.lifetime.start.p0(i64 152, ptr nonnull %5) #12
  %27 = call i32 @sigaction(i32 noundef 13, ptr noundef null, ptr noundef nonnull %7) #12
  call void @llvm.memcpy.p0.p0.i64(ptr noundef nonnull align 8 dereferenceable(152) %5, ptr noundef nonnull align 8 dereferenceable(152) %7, i64 152, i1 false), !tbaa.struct !89
  store ptr inttoptr (i64 1 to ptr), ptr %5, align 8, !tbaa !79
  %28 = call i32 @sigaction(i32 noundef 13, ptr noundef nonnull %5, ptr noundef null) #12
  call void @llvm.lifetime.end.p0(i64 152, ptr nonnull %5) #12
  br label %sigpipe_ignore.exit

sigpipe_ignore.exit:                              ; preds = %18, %26
  %29 = call i32 @Curl_conn_send(ptr noundef nonnull %0, i32 noundef 0, ptr noundef %1, i64 noundef %2, i1 noundef zeroext false, ptr noundef nonnull %3) #12
  %30 = load i8, ptr %21, align 8, !tbaa !84, !range !92, !noundef !93
  %31 = trunc nuw i8 %30 to i1
  br i1 %31, label %sigpipe_restore.exit, label %32

32:                                               ; preds = %sigpipe_ignore.exit
  %33 = call i32 @sigaction(i32 noundef 13, ptr noundef nonnull %7, ptr noundef null) #12
  br label %sigpipe_restore.exit

sigpipe_restore.exit:                             ; preds = %sigpipe_ignore.exit, %32
  %switch.selectcmp = icmp eq i32 %29, 0
  %switch.select = select i1 %switch.selectcmp, i32 0, i32 55
  %switch.selectcmp17 = icmp eq i32 %29, 81
  %switch.select18 = select i1 %switch.selectcmp17, i32 81, i32 %switch.select
  br label %easy_connection.exit.thread

easy_connection.exit.thread:                      ; preds = %.sink.split.i, %4, %sigpipe_restore.exit
  %.0 = phi i32 [ %switch.select18, %sigpipe_restore.exit ], [ 1, %.sink.split.i ], [ 43, %4 ]
  call void @llvm.lifetime.end.p0(i64 160, ptr nonnull %7) #12
  call void @llvm.lifetime.end.p0(i64 8, ptr nonnull %6) #12
  ret i32 %.0
}